target datalayout = "e-m:e-p270:32:32-p271:32:32-p272:64:64-i64:64-i128:128-f80:128-n8:16:32:64-S128"
target triple = "x86_64-pc-linux-gnu"

%struct.Vec_Int_t_ = type { i32, i32, ptr }
%struct.Vec_Ptr_t_ = type { i32, i32, ptr }
%struct.Abc_Obj_t_ = type { ptr, ptr, i32, i32, %struct.Vec_Int_t_, %struct.Vec_Int_t_, %union.anon, %union.anon.0 }
%union.anon = type { ptr }
%union.anon.0 = type { ptr }
%struct.Abc_Ntk_t_ = type { i32, i32, ptr, ptr, ptr, ptr, ptr, ptr, ptr, ptr, ptr, ptr, ptr, [11 x i32], i32, i32, i32, i32, ptr, i32, ptr, ptr, i32, i32, i32, double, i32, %struct.Vec_Int_t_, ptr, ptr, ptr, ptr, ptr, float, i32, ptr, ptr, ptr, ptr, ptr, ptr, ptr, ptr, ptr, ptr, ptr, ptr, ptr, ptr, ptr, ptr, ptr, ptr, ptr, ptr, ptr, ptr }

@.str.2 = private unnamed_addr constant [2 x i8] c"\0A\00", align 1
@.str.7 = private unnamed_addr constant [15 x i8] c"multi_and.blif\00", align 1
@.str.8 = private unnamed_addr constant [3 x i8] c"wb\00", align 1
@.str.9 = private unnamed_addr constant [26 x i8] c"Cannot open output file.\0A\00", align 1
@.str.10 = private unnamed_addr constant [11 x i8] c".model %s\0A\00", align 1
@.str.11 = private unnamed_addr constant [10 x i8] c"multi_and\00", align 1
@.str.12 = private unnamed_addr constant [8 x i8] c".inputs\00", align 1
@.str.13 = private unnamed_addr constant [5 x i8] c" i%d\00", align 1
@.str.14 = private unnamed_addr constant [9 x i8] c".outputs\00", align 1
@.str.15 = private unnamed_addr constant [5 x i8] c" o%d\00", align 1
@.str.16 = private unnamed_addr constant [7 x i8] c".names\00", align 1
@.str.17 = private unnamed_addr constant [6 x i8] c" o%d\0A\00", align 1
@.str.18 = private unnamed_addr constant [2 x i8] c"1\00", align 1
@.str.19 = private unnamed_addr constant [4 x i8] c" 1\0A\00", align 1
@.str.20 = private unnamed_addr constant [7 x i8] c".end\0A\0A\00", align 1

; Function Attrs: inlinehint nounwind uwtable
define internal void @Vec_PtrFree(ptr noundef %0) #3 {
  %2 = alloca ptr, align 8
  store ptr %0, ptr %2, align 8, !tbaa !24
  %3 = load ptr, ptr %2, align 8, !tbaa !24
  %4 = getelementptr inbounds nuw %struct.Vec_Ptr_t_, ptr %3, i32 0, i32 2
  %5 = load ptr, ptr %4, align 8, !tbaa !29
  %6 = icmp ne ptr %5, null
  br i1 %6, label %7, label %13

7:                                                ; preds = %1
  %8 = load ptr, ptr %2, align 8, !tbaa !24
  %9 = getelementptr inbounds nuw %struct.Vec_Ptr_t_, ptr %8, i32 0, i32 2
  %10 = load ptr, ptr %9, align 8, !tbaa !29
  call void @free(ptr noundef %10) #9
  %11 = load ptr, ptr %2, align 8, !tbaa !24
  %12 = getelementptr inbounds nuw %struct.Vec_Ptr_t_, ptr %11, i32 0, i32 2
  store ptr null, ptr %12, align 8, !tbaa !29
  br label %14

13:                                               ; preds = %1
  br label %14

14:                                               ; preds = %13, %7
  %15 = load ptr, ptr %2, align 8, !tbaa !24
  %16 = icmp ne ptr %15, null
  br i1 %16, label %17, label %19

17:                                               ; preds = %14
  %18 = load ptr, ptr %2, align 8, !tbaa !24
  call void @free(ptr noundef %18) #9
  store ptr null, ptr %2, align 8, !tbaa !24
  br label %20

19:                                               ; preds = %14
  br label %20

20:                                               ; preds = %19, %17
  ret void
}

; Function Attrs: inlinehint nounwind uwtable
define internal ptr @Vec_PtrEntry(ptr noundef %0, i32 noundef %1) #3 {
  %3 = alloca ptr, align 8
  %4 = alloca i32, align 4
  store ptr %0, ptr %3, align 8, !tbaa !24
  store i32 %1, ptr %4, align 4, !tbaa !16
  %5 = load ptr, ptr %3, align 8, !tbaa !24
  %6 = getelementptr inbounds nuw %struct.Vec_Ptr_t_, ptr %5, i32 0, i32 2
  %7 = load ptr, ptr %6, align 8, !tbaa !29
  %8 = load i32, ptr %4, align 4, !tbaa !16
  %9 = sext i32 %8 to i64
  %10 = getelementptr inbounds ptr, ptr %7, i64 %9
  %11 = load ptr, ptr %10, align 8, !tbaa !30
  ret ptr %11
}

; Function Attrs: inlinehint nounwind uwtable
define internal i32 @Vec_PtrSize(ptr noundef %0) #3 {
  %2 = alloca ptr, align 8
  store ptr %0, ptr %2, align 8, !tbaa !24
  %3 = load ptr, ptr %2, align 8, !tbaa !24
  %4 = getelementptr inbounds nuw %struct.Vec_Ptr_t_, ptr %3, i32 0, i32 1
  %5 = load i32, ptr %4, align 4, !tbaa !27
  ret i32 %5
}

; Function Attrs: inlinehint nounwind uwtable
define internal ptr @Abc_NtkCo(ptr noundef %0, i32 noundef %1) #3 {
  %3 = alloca ptr, align 8
  %4 = alloca i32, align 4
  store ptr %0, ptr %3, align 8, !tbaa !3
  store i32 %1, ptr %4, align 4, !tbaa !16
  %5 = load ptr, ptr %3, align 8, !tbaa !3
  %6 = getelementptr inbounds nuw %struct.Abc_Ntk_t_, ptr %5, i32 0, i32 9
  %7 = load ptr, ptr %6, align 8, !tbaa !92
  %8 = load i32, ptr %4, align 4, !tbaa !16
  %9 = call ptr @Vec_PtrEntry(ptr noundef %7, i32 noundef %8)
  ret ptr %9
}

; Function Attrs: inlinehint nounwind uwtable
define internal ptr @Abc_NtkCi(ptr noundef %0, i32 noundef %1) #3 {
  %3 = alloca ptr, align 8
  %4 = alloca i32, align 4
  store ptr %0, ptr %3, align 8, !tbaa !3
  store i32 %1, ptr %4, align 4, !tbaa !16
  %5 = load ptr, ptr %3, align 8, !tbaa !3
  %6 = getelementptr inbounds nuw %struct.Abc_Ntk_t_, ptr %5, i32 0, i32 8
  %7 = load ptr, ptr %6, align 8, !tbaa !111
  %8 = load i32, ptr %4, align 4, !tbaa !16
  %9 = call ptr @Vec_PtrEntry(ptr noundef %7, i32 noundef %8)
  ret ptr %9
}

; Function Attrs: inlinehint nounwind uwtable
define internal i32 @Abc_NtkCoNum(ptr noundef %0) #3 {
  %2 = alloca ptr, align 8
  store ptr %0, ptr %2, align 8, !tbaa !3
  %3 = load ptr, ptr %2, align 8, !tbaa !3
  %4 = getelementptr inbounds nuw %struct.Abc_Ntk_t_, ptr %3, i32 0, i32 9
  %5 = load ptr, ptr %4, align 8, !tbaa !92
  %6 = call i32 @Vec_PtrSize(ptr noundef %5)
  ret i32 %6
}

; Function Attrs: inlinehint nounwind uwtable
define internal i32 @Abc_NtkCiNum(ptr noundef %0) #3 {
  %2 = alloca ptr, align 8
  store ptr %0, ptr %2, align 8, !tbaa !3
  %3 = load ptr, ptr %2, align 8, !tbaa !3
  %4 = getelementptr inbounds nuw %struct.Abc_Ntk_t_, ptr %3, i32 0, i32 8
  %5 = load ptr, ptr %4, align 8, !tbaa !111
  %6 = call i32 @Vec_PtrSize(ptr noundef %5)
  ret i32 %6
}

; Function Attrs: nounwind uwtable
define void @Abc_NtkDumpBlif(ptr noundef %0) #0 {
  %2 = alloca ptr, align 8
  %3 = alloca ptr, align 8
  %4 = alloca ptr, align 8
  %5 = alloca ptr, align 8
  %6 = alloca i32, align 4
  %7 = alloca i32, align 4
  %8 = alloca i32, align 4
  store ptr %0, ptr %2, align 8, !tbaa !3
  call void @llvm.lifetime.start.p0(i64 8, ptr %3) #9
  call void @llvm.lifetime.start.p0(i64 8, ptr %4) #9
  call void @llvm.lifetime.start.p0(i64 8, ptr %5) #9
  call void @llvm.lifetime.start.p0(i64 4, ptr %6) #9
  call void @llvm.lifetime.start.p0(i64 4, ptr %7) #9
  %9 = call noalias ptr @fopen(ptr noundef @.str.7, ptr noundef @.str.8)
  store ptr %9, ptr %3, align 8, !tbaa !103
  %10 = load ptr, ptr %3, align 8, !tbaa !103
  %11 = icmp eq ptr %10, null
  br i1 %11, label %12, label %14

12:                                               ; preds = %1
  %13 = call i32 (ptr, ...) @printf(ptr noundef @.str.9)
  store i32 1, ptr %8, align 4
  br label %136

14:                                               ; preds = %1
  %15 = load ptr, ptr %3, align 8, !tbaa !103
  %16 = call i32 (ptr, ptr, ...) @fprintf(ptr noundef %15, ptr noundef @.str.10, ptr noundef @.str.11) #9
  %17 = load ptr, ptr %3, align 8, !tbaa !103
  %18 = call i32 (ptr, ptr, ...) @fprintf(ptr noundef %17, ptr noundef @.str.12) #9
  store i32 0, ptr %6, align 4, !tbaa !16
  br label %19

19:                                               ; preds = %28, %14
  %20 = load i32, ptr %6, align 4, !tbaa !16
  %21 = load ptr, ptr %2, align 8, !tbaa !3
  %22 = call i32 @Abc_NtkCiNum(ptr noundef %21)
  %23 = icmp slt i32 %20, %22
  br i1 %23, label %24, label %31

24:                                               ; preds = %19
  %25 = load ptr, ptr %3, align 8, !tbaa !103
  %26 = load i32, ptr %6, align 4, !tbaa !16
  %27 = call i32 (ptr, ptr, ...) @fprintf(ptr noundef %25, ptr noundef @.str.13, i32 noundef %26) #9
  br label %28

28:                                               ; preds = %24
  %29 = load i32, ptr %6, align 4, !tbaa !16
  %30 = add nsw i32 %29, 1
  store i32 %30, ptr %6, align 4, !tbaa !16
  br label %19, !llvm.loop !105

31:                                               ; preds = %19
  %32 = load ptr, ptr %3, align 8, !tbaa !103
  %33 = call i32 (ptr, ptr, ...) @fprintf(ptr noundef %32, ptr noundef @.str.2) #9
  %34 = load ptr, ptr %3, align 8, !tbaa !103
  %35 = call i32 (ptr, ptr, ...) @fprintf(ptr noundef %34, ptr noundef @.str.14) #9
  store i32 0, ptr %6, align 4, !tbaa !16
  br label %36

36:                                               ; preds = %45, %31
  %37 = load i32, ptr %6, align 4, !tbaa !16
  %38 = load ptr, ptr %2, align 8, !tbaa !3
  %39 = call i32 @Abc_NtkCoNum(ptr noundef %38)
  %40 = icmp slt i32 %37, %39
  br i1 %40, label %41, label %48

41:                                               ; preds = %36
  %42 = load ptr, ptr %3, align 8, !tbaa !103
  %43 = load i32, ptr %6, align 4, !tbaa !16
  %44 = call i32 (ptr, ptr, ...) @fprintf(ptr noundef %42, ptr noundef @.str.15, i32 noundef %43) #9
  br label %45

45:                                               ; preds = %41
  %46 = load i32, ptr %6, align 4, !tbaa !16
  %47 = add nsw i32 %46, 1
  store i32 %47, ptr %6, align 4, !tbaa !16
  br label %36, !llvm.loop !106

48:                                               ; preds = %36
  %49 = load ptr, ptr %3, align 8, !tbaa !103
  %50 = call i32 (ptr, ptr, ...) @fprintf(ptr noundef %49, ptr noundef @.str.2) #9
  store i32 0, ptr %6, align 4, !tbaa !16
  br label %51

51:                                               ; preds = %66, %48
  %52 = load i32, ptr %6, align 4, !tbaa !16
  %53 = load ptr, ptr %2, align 8, !tbaa !3
  %54 = call i32 @Abc_NtkCiNum(ptr noundef %53)
  %55 = icmp slt i32 %52, %54
  br i1 %55, label %56, label %60

56:                                               ; preds = %51
  %57 = load ptr, ptr %2, align 8, !tbaa !3
  %58 = load i32, ptr %6, align 4, !tbaa !16
  %59 = call ptr @Abc_NtkCi(ptr noundef %57, i32 noundef %58)
  store ptr %59, ptr %5, align 8, !tbaa !38
  br label %60

60:                                               ; preds = %56, %51
  %61 = phi i1 [ false, %51 ], [ true, %56 ]
  br i1 %61, label %62, label %69

62:                                               ; preds = %60
  %63 = load i32, ptr %6, align 4, !tbaa !16
  %64 = load ptr, ptr %5, align 8, !tbaa !38
  %65 = getelementptr inbounds nuw %struct.Abc_Obj_t_, ptr %64, i32 0, i32 7
  store i32 %63, ptr %65, align 8, !tbaa !95
  br label %66

66:                                               ; preds = %62
  %67 = load i32, ptr %6, align 4, !tbaa !16
  %68 = add nsw i32 %67, 1
  store i32 %68, ptr %6, align 4, !tbaa !16
  br label %51, !llvm.loop !107

69:                                               ; preds = %60
  store i32 0, ptr %6, align 4, !tbaa !16
  br label %70

70:                                               ; preds = %128, %69
  %71 = load i32, ptr %6, align 4, !tbaa !16
  %72 = load ptr, ptr %2, align 8, !tbaa !3
  %73 = call i32 @Abc_NtkCoNum(ptr noundef %72)
  %74 = icmp slt i32 %71, %73
  br i1 %74, label %75, label %131

75:                                               ; preds = %70
  %76 = load ptr, ptr %2, align 8, !tbaa !3
  %77 = load i32, ptr %6, align 4, !tbaa !16
  %78 = call ptr @Abc_NtkCo(ptr noundef %76, i32 noundef %77)
  store ptr %78, ptr %5, align 8, !tbaa !38
  %79 = load ptr, ptr %2, align 8, !tbaa !3
  %80 = call ptr @Abc_NtkNodeSupport(ptr noundef %79, ptr noundef %5, i32 noundef 1)
  store ptr %80, ptr %4, align 8, !tbaa !24
  %81 = load ptr, ptr %3, align 8, !tbaa !103
  %82 = call i32 (ptr, ptr, ...) @fprintf(ptr noundef %81, ptr noundef @.str.16) #9
  store i32 0, ptr %7, align 4, !tbaa !16
  br label %83

83:                                               ; preds = %100, %75
  %84 = load i32, ptr %7, align 4, !tbaa !16
  %85 = load ptr, ptr %4, align 8, !tbaa !24
  %86 = call i32 @Vec_PtrSize(ptr noundef %85)
  %87 = icmp slt i32 %84, %86
  br i1 %87, label %88, label %92

88:                                               ; preds = %83
  %89 = load ptr, ptr %4, align 8, !tbaa !24
  %90 = load i32, ptr %7, align 4, !tbaa !16
  %91 = call ptr @Vec_PtrEntry(ptr noundef %89, i32 noundef %90)
  store ptr %91, ptr %5, align 8, !tbaa !38
  br label %92

92:                                               ; preds = %88, %83
  %93 = phi i1 [ false, %83 ], [ true, %88 ]
  br i1 %93, label %94, label %103

94:                                               ; preds = %92
  %95 = load ptr, ptr %3, align 8, !tbaa !103
  %96 = load ptr, ptr %5, align 8, !tbaa !38
  %97 = getelementptr inbounds nuw %struct.Abc_Obj_t_, ptr %96, i32 0, i32 7
  %98 = load i32, ptr %97, align 8, !tbaa !95
  %99 = call i32 (ptr, ptr, ...) @fprintf(ptr noundef %95, ptr noundef @.str.13, i32 noundef %98) #9
  br label %100

100:                                              ; preds = %94
  %101 = load i32, ptr %7, align 4, !tbaa !16
  %102 = add nsw i32 %101, 1
  store i32 %102, ptr %7, align 4, !tbaa !16
  br label %83, !llvm.loop !108

103:                                              ; preds = %92
  %104 = load ptr, ptr %3, align 8, !tbaa !103
  %105 = load i32, ptr %6, align 4, !tbaa !16
  %106 = call i32 (ptr, ptr, ...) @fprintf(ptr noundef %104, ptr noundef @.str.17, i32 noundef %105) #9
  store i32 0, ptr %7, align 4, !tbaa !16
  br label %107

107:                                              ; preds = %121, %103
  %108 = load i32, ptr %7, align 4, !tbaa !16
  %109 = load ptr, ptr %4, align 8, !tbaa !24
  %110 = call i32 @Vec_PtrSize(ptr noundef %109)
  %111 = icmp slt i32 %108, %110
  br i1 %111, label %112, label %116

112:                                              ; preds = %107
  %113 = load ptr, ptr %4, align 8, !tbaa !24
  %114 = load i32, ptr %7, align 4, !tbaa !16
  %115 = call ptr @Vec_PtrEntry(ptr noundef %113, i32 noundef %114)
  store ptr %115, ptr %5, align 8, !tbaa !38
  br label %116

116:                                              ; preds = %112, %107
  %117 = phi i1 [ false, %107 ], [ true, %112 ]
  br i1 %117, label %118, label %124

118:                                              ; preds = %116
  %119 = load ptr, ptr %3, align 8, !tbaa !103
  %120 = call i32 (ptr, ptr, ...) @fprintf(ptr noundef %119, ptr noundef @.str.18) #9
  br label %121

121:                                              ; preds = %118
  %122 = load i32, ptr %7, align 4, !tbaa !16
  %123 = add nsw i32 %122, 1
  store i32 %123, ptr %7, align 4, !tbaa !16
  br label %107, !llvm.loop !109

124:                                              ; preds = %116
  %125 = load ptr, ptr %3, align 8, !tbaa !103
  %126 = call i32 (ptr, ptr, ...) @fprintf(ptr noundef %125, ptr noundef @.str.19) #9
  %127 = load ptr, ptr %4, align 8, !tbaa !24
  call void @Vec_PtrFree(ptr noundef %127)
  br label %128

128:                                              ; preds = %124
  %129 = load i32, ptr %6, align 4, !tbaa !16
  %130 = add nsw i32 %129, 1
  store i32 %130, ptr %6, align 4, !tbaa !16
  br label %70, !llvm.loop !110

131:                                              ; preds = %70
  %132 = load ptr, ptr %3, align 8, !tbaa !103
  %133 = call i32 (ptr, ptr, ...) @fprintf(ptr noundef %132, ptr noundef @.str.20) #9
  %134 = load ptr, ptr %3, align 8, !tbaa !103
  %135 = call i32 @fclose(ptr noundef %134)
  store i32 0, ptr %8, align 4
  br label %136

136:                                              ; preds = %131, %12
  call void @llvm.lifetime.end.p0(i64 4, ptr %7) #9
  call void @llvm.lifetime.end.p0(i64 4, ptr %6) #9
  call void @llvm.lifetime.end.p0(i64 8, ptr %5) #9
  call void @llvm.lifetime.end.p0(i64 8, ptr %4) #9
  call void @llvm.lifetime.end.p0(i64 8, ptr %3) #9
  %137 = load i32, ptr %8, align 4
  switch i32 %137, label %139 [
    i32 0, label %138
    i32 1, label %138
  ]

138:                                              ; preds = %136, %136
  ret void

139:                                              ; preds = %136
  unreachable
}