; Function Attrs: nounwind uwtable
define void @Abc_NtkDumpBlif(ptr noundef %0) local_unnamed_addr #3 {
  %2 = alloca ptr, align 8
  call void @llvm.lifetime.start.p0(i64 8, ptr nonnull %2) #15
  %3 = tail call noalias ptr @fopen(ptr noundef nonnull @.str.7, ptr noundef nonnull @.str.8)
  %4 = icmp eq ptr %3, null
  br i1 %4, label %5, label %6

5:                                                ; preds = %1
  %puts = tail call i32 @puts(ptr nonnull dereferenceable(1) @str)
  br label %70

6:                                                ; preds = %1
  %7 = tail call i32 (ptr, ptr, ...) @fprintf(ptr noundef nonnull %3, ptr noundef nonnull @.str.10, ptr noundef nonnull @.str.11) #15
  %8 = tail call i64 @fwrite(ptr nonnull @.str.12, i64 7, i64 1, ptr nonnull %3)
  %9 = getelementptr i8, ptr %0, i64 56
  %.val6166 = load ptr, ptr %9, align 8, !tbaa !91
  %10 = getelementptr i8, ptr %.val6166, i64 4
  %.val61.val67 = load i32, ptr %10, align 4, !tbaa !19
  %11 = icmp sgt i32 %.val61.val67, 0
  br i1 %11, label %.lr.ph, label %._crit_edge

.lr.ph:                                           ; preds = %6, %.lr.ph
  %.05068 = phi i32 [ %13, %.lr.ph ], [ 0, %6 ]
  %12 = tail call i32 (ptr, ptr, ...) @fprintf(ptr noundef nonnull %3, ptr noundef nonnull @.str.13, i32 noundef %.05068) #15
  %13 = add nuw nsw i32 %.05068, 1
  %.val61 = load ptr, ptr %9, align 8, !tbaa !91
  %14 = getelementptr i8, ptr %.val61, i64 4
  %.val61.val = load i32, ptr %14, align 4, !tbaa !19
  %15 = icmp slt i32 %13, %.val61.val
  br i1 %15, label %.lr.ph, label %._crit_edge, !llvm.loop !92

._crit_edge:                                      ; preds = %.lr.ph, %6
  %fputc = tail call i32 @fputc(i32 10, ptr nonnull %3)
  %16 = tail call i64 @fwrite(ptr nonnull @.str.14, i64 8, i64 1, ptr nonnull %3)
  %17 = getelementptr i8, ptr %0, i64 64
  %.val5969 = load ptr, ptr %17, align 8, !tbaa !76
  %18 = getelementptr i8, ptr %.val5969, i64 4
  %.val59.val70 = load i32, ptr %18, align 4, !tbaa !19
  %19 = icmp sgt i32 %.val59.val70, 0
  br i1 %19, label %.lr.ph73, label %._crit_edge74

.lr.ph73:                                         ; preds = %._crit_edge, %.lr.ph73
  %.15171 = phi i32 [ %21, %.lr.ph73 ], [ 0, %._crit_edge ]
  %20 = tail call i32 (ptr, ptr, ...) @fprintf(ptr noundef nonnull %3, ptr noundef nonnull @.str.15, i32 noundef %.15171) #15
  %21 = add nuw nsw i32 %.15171, 1
  %.val59 = load ptr, ptr %17, align 8, !tbaa !76
  %22 = getelementptr i8, ptr %.val59, i64 4
  %.val59.val = load i32, ptr %22, align 4, !tbaa !19
  %23 = icmp slt i32 %21, %.val59.val
  br i1 %23, label %.lr.ph73, label %._crit_edge74, !llvm.loop !93

._crit_edge74:                                    ; preds = %.lr.ph73, %._crit_edge
  %fputc53 = tail call i32 @fputc(i32 10, ptr nonnull %3)
  %.val6275 = load ptr, ptr %9, align 8, !tbaa !91
  %24 = getelementptr i8, ptr %.val6275, i64 4
  %.val62.val76 = load i32, ptr %24, align 4, !tbaa !19
  %25 = icmp sgt i32 %.val62.val76, 0
  br i1 %25, label %.lr.ph80, label %.critedge.preheader

.critedge.preheader:                              ; preds = %.lr.ph80, %._crit_edge74
  %.val5888 = load ptr, ptr %17, align 8, !tbaa !76
  %26 = getelementptr i8, ptr %.val5888, i64 4
  %.val58.val89 = load i32, ptr %26, align 4, !tbaa !19
  %27 = icmp sgt i32 %.val58.val89, 0
  br i1 %27, label %.lr.ph92, label %.critedge._crit_edge

.lr.ph80:                                         ; preds = %._crit_edge74, %.lr.ph80
  %indvars.iv = phi i64 [ %indvars.iv.next, %.lr.ph80 ], [ 0, %._crit_edge74 ]
  %.val6278 = phi ptr [ %.val62, %.lr.ph80 ], [ %.val6275, %._crit_edge74 ]
  %28 = getelementptr i8, ptr %.val6278, i64 8
  %.val63.val = load ptr, ptr %28, align 8, !tbaa !21
  %29 = getelementptr inbounds nuw ptr, ptr %.val63.val, i64 %indvars.iv
  %30 = load ptr, ptr %29, align 8, !tbaa !22
  store ptr %30, ptr %2, align 8, !tbaa !57
  %31 = getelementptr inbounds nuw i8, ptr %30, i64 64
  %32 = trunc nuw nsw i64 %indvars.iv to i32
  store i32 %32, ptr %31, align 8, !tbaa !83
  %indvars.iv.next = add nuw nsw i64 %indvars.iv, 1
  %.val62 = load ptr, ptr %9, align 8, !tbaa !91
  %33 = getelementptr i8, ptr %.val62, i64 4
  %.val62.val = load i32, ptr %33, align 4, !tbaa !19
  %34 = sext i32 %.val62.val to i64
  %35 = icmp slt i64 %indvars.iv.next, %34
  br i1 %35, label %.lr.ph80, label %.critedge.preheader, !llvm.loop !94

.lr.ph92:                                         ; preds = %.critedge.preheader, %Vec_PtrFree.exit
  %indvars.iv100 = phi i64 [ %indvars.iv.next101, %Vec_PtrFree.exit ], [ 0, %.critedge.preheader ]
  %.val5891 = phi ptr [ %.val58, %Vec_PtrFree.exit ], [ %.val5888, %.critedge.preheader ]
  %36 = getelementptr i8, ptr %.val5891, i64 8
  %.val60.val = load ptr, ptr %36, align 8, !tbaa !21
  %37 = getelementptr inbounds nuw ptr, ptr %.val60.val, i64 %indvars.iv100
  %38 = load ptr, ptr %37, align 8, !tbaa !22
  store ptr %38, ptr %2, align 8, !tbaa !57
  %39 = call ptr @Abc_NtkNodeSupport(ptr noundef nonnull %0, ptr noundef nonnull %2, i32 noundef 1) #15
  %40 = call i64 @fwrite(ptr nonnull @.str.16, i64 6, i64 1, ptr nonnull %3)
  %41 = getelementptr i8, ptr %39, i64 4
  %.val5581 = load i32, ptr %41, align 4, !tbaa !19
  %42 = icmp sgt i32 %.val5581, 0
  br i1 %42, label %.lr.ph84, label %.critedge2

.lr.ph84:                                         ; preds = %.lr.ph92
  %43 = getelementptr i8, ptr %39, i64 8
  br label %44

44:                                               ; preds = %.lr.ph84, %44
  %indvars.iv94 = phi i64 [ 0, %.lr.ph84 ], [ %indvars.iv.next95, %44 ]
  %.val57 = load ptr, ptr %43, align 8, !tbaa !21
  %45 = getelementptr inbounds nuw ptr, ptr %.val57, i64 %indvars.iv94
  %46 = load ptr, ptr %45, align 8, !tbaa !22
  store ptr %46, ptr %2, align 8, !tbaa !57
  %47 = getelementptr inbounds nuw i8, ptr %46, i64 64
  %48 = load i32, ptr %47, align 8, !tbaa !83
  %49 = call i32 (ptr, ptr, ...) @fprintf(ptr noundef nonnull %3, ptr noundef nonnull @.str.13, i32 noundef %48) #15
  %indvars.iv.next95 = add nuw nsw i64 %indvars.iv94, 1
  %.val55 = load i32, ptr %41, align 4, !tbaa !19
  %50 = sext i32 %.val55 to i64
  %51 = icmp slt i64 %indvars.iv.next95, %50
  br i1 %51, label %44, label %.critedge2, !llvm.loop !95

.critedge2:                                       ; preds = %44, %.lr.ph92
  %52 = trunc nuw nsw i64 %indvars.iv100 to i32
  %53 = call i32 (ptr, ptr, ...) @fprintf(ptr noundef nonnull %3, ptr noundef nonnull @.str.17, i32 noundef %52) #15
  %.val85 = load i32, ptr %41, align 4, !tbaa !19
  %54 = icmp sgt i32 %.val85, 0
  br i1 %54, label %.lr.ph87, label %.critedge4

.lr.ph87:                                         ; preds = %.critedge2
  %55 = getelementptr i8, ptr %39, i64 8
  br label %56

56:                                               ; preds = %.lr.ph87, %56
  %indvars.iv97 = phi i64 [ 0, %.lr.ph87 ], [ %indvars.iv.next98, %56 ]
  %.val56 = load ptr, ptr %55, align 8, !tbaa !21
  %57 = getelementptr inbounds nuw ptr, ptr %.val56, i64 %indvars.iv97
  %58 = load ptr, ptr %57, align 8, !tbaa !22
  store ptr %58, ptr %2, align 8, !tbaa !57
  %fputc54 = call i32 @fputc(i32 49, ptr nonnull %3)
  %indvars.iv.next98 = add nuw nsw i64 %indvars.iv97, 1
  %.val = load i32, ptr %41, align 4, !tbaa !19
  %59 = sext i32 %.val to i64
  %60 = icmp slt i64 %indvars.iv.next98, %59
  br i1 %60, label %56, label %.critedge4, !llvm.loop !96

.critedge4:                                       ; preds = %56, %.critedge2
  %61 = call i64 @fwrite(ptr nonnull @.str.19, i64 3, i64 1, ptr nonnull %3)
  %62 = getelementptr inbounds nuw i8, ptr %39, i64 8
  %63 = load ptr, ptr %62, align 8, !tbaa !21
  %.not.i = icmp eq ptr %63, null
  br i1 %.not.i, label %Vec_PtrFree.exit, label %64

64:                                               ; preds = %.critedge4
  call void @free(ptr noundef nonnull %63) #15
  br label %Vec_PtrFree.exit

Vec_PtrFree.exit:                                 ; preds = %.critedge4, %64
  call void @free(ptr noundef nonnull %39) #15
  %indvars.iv.next101 = add nuw nsw i64 %indvars.iv100, 1
  %.val58 = load ptr, ptr %17, align 8, !tbaa !76
  %65 = getelementptr i8, ptr %.val58, i64 4
  %.val58.val = load i32, ptr %65, align 4, !tbaa !19
  %66 = sext i32 %.val58.val to i64
  %67 = icmp slt i64 %indvars.iv.next101, %66
  br i1 %67, label %.lr.ph92, label %.critedge._crit_edge, !llvm.loop !97

.critedge._crit_edge:                             ; preds = %Vec_PtrFree.exit, %.critedge.preheader
  %68 = call i64 @fwrite(ptr nonnull @.str.20, i64 6, i64 1, ptr nonnull %3)
  %69 = call i32 @fclose(ptr noundef nonnull %3)
  br label %70

70:                                               ; preds = %.critedge._crit_edge, %5
  call void @llvm.lifetime.end.p0(i64 8, ptr nonnull %2) #15
  ret void
}